(dp1
S'session'
p2
(dp3
S'_accessed_time'
p4
F1406623590.749542
sS'mail'
p5
S'seraphwlq@gmail.com'
p6
sS'role'
p7
I0
sS'_creation_time'
p8
F1406622027.493192
sS'user_id'
p9
ccopy_reg
_reconstructor
p10
(cbson.objectid
ObjectId
p11
c__builtin__
object
p12
NtRp13
S'S\xd7]\xad\xd1\xbc\xc3\x10\xeaZ\xfd\xd6'
p14
bss.